target datalayout = "e-m:e-p270:32:32-p271:32:32-p272:64:64-i64:64-i128:128-f80:128-n8:16:32:64-S128"
target triple = "x86_64-pc-linux-gnu"

%struct.LLVMIntrinsics = type { i32, i32, i32, i32, i32, i32, i32, i32, i32, i32, i32, i32, i32, i32, i32, i32, i32, i32, i32, i32, i32, i32, i32, i32, i32, i32, i32, i32, i32, i32, i32, i32, i32, i32, i32, i32, i32, i32, i32, i32, i32, i32, i32, i32, i32, i32, i32, i32, i32, i32, i32, i32, i32, i32, i32, i32, i32, i32, i32, i32, i32, i32, i32, i32, i32, i32, i32, i32, i32, i32, i32, i32, i32, i32, i32, i32, i32, i32, i32, i32, i32, i32, i32, i32, i32, i32, i32, i32, i32, i32, i32, i32, i32, i32 }
%struct.BEValue = type { i8, i32, ptr, ptr, ptr }
%struct.Expr_ = type { ptr, %union.SourceSpan, i16, %union.anon.29 }
%union.SourceSpan = type { i64 }
%union.anon.29 = type { %struct.ExprAnySwitch }
%struct.ExprAnySwitch = type { i8, %union.anon.31 }
%union.anon.31 = type { %struct.anon.32 }
%struct.anon.32 = type { ptr, %union.SourceSpan, ptr }
%struct.ExprCall = type { %union.anon.33, i32, i16, ptr, %union.anon.34 }
%union.anon.33 = type { i32 }
%union.anon.34 = type { ptr }

@intrinsic_id = external global %struct.LLVMIntrinsics, align 4

; Function Attrs: nounwind uwtable
define dso_local void @llvm_emit_pow_int_builtin(ptr noundef %0, ptr noundef %1, ptr noundef %2) #0 {
  %4 = alloca ptr, align 8
  %5 = alloca ptr, align 8
  %6 = alloca ptr, align 8
  %7 = alloca i32, align 4
  %8 = alloca %struct.BEValue, align 8
  %9 = alloca i32, align 4
  %10 = alloca ptr, align 8
  %11 = alloca ptr, align 8
  %12 = alloca ptr, align 8
  %13 = alloca ptr, align 8
  %14 = alloca [2 x ptr], align 16
  %15 = alloca [2 x ptr], align 16
  %16 = alloca ptr, align 8
  store ptr %0, ptr %10, align 8
  store ptr %1, ptr %11, align 8
  store ptr %2, ptr %12, align 8
  %17 = load ptr, ptr %12, align 8
  %18 = getelementptr inbounds %struct.Expr_, ptr %17, i32 0, i32 3
  %19 = getelementptr inbounds %struct.ExprCall, ptr %18, i32 0, i32 3
  %20 = load ptr, ptr %19, align 8
  store ptr %20, ptr %13, align 8
  %21 = load ptr, ptr %10, align 8
  %22 = load ptr, ptr %13, align 8
  %23 = getelementptr inbounds [2 x ptr], ptr %14, i64 0, i64 0
  store ptr %21, ptr %4, align 8
  store ptr %22, ptr %5, align 8
  store ptr %23, ptr %6, align 8
  store i32 2, ptr %7, align 4
  store i32 0, ptr %9, align 4
  br label %24

24:                                               ; preds = %28, %3
  %25 = load i32, ptr %9, align 4
  %26 = load i32, ptr %7, align 4
  %27 = icmp ult i32 %25, %26
  br i1 %27, label %28, label %44

28:                                               ; preds = %24
  %29 = load ptr, ptr %4, align 8
  %30 = load ptr, ptr %5, align 8
  %31 = load i32, ptr %9, align 4
  %32 = zext i32 %31 to i64
  %33 = getelementptr inbounds ptr, ptr %30, i64 %32
  %34 = load ptr, ptr %33, align 8
  call void @llvm_emit_expr(ptr noundef %29, ptr noundef %8, ptr noundef %34) #6
  %35 = load ptr, ptr %4, align 8
  call void @llvm_value_rvalue(ptr noundef %35, ptr noundef %8) #6
  %36 = getelementptr inbounds %struct.BEValue, ptr %8, i32 0, i32 3
  %37 = load ptr, ptr %36, align 8
  %38 = load ptr, ptr %6, align 8
  %39 = load i32, ptr %9, align 4
  %40 = zext i32 %39 to i64
  %41 = getelementptr inbounds ptr, ptr %38, i64 %40
  store ptr %37, ptr %41, align 8
  %42 = load i32, ptr %9, align 4
  %43 = add i32 %42, 1
  store i32 %43, ptr %9, align 4
  br label %24, !llvm.loop !11

44:                                               ; preds = %24
  %45 = getelementptr inbounds [2 x ptr], ptr %15, i64 0, i64 0
  %46 = getelementptr inbounds [2 x ptr], ptr %14, i64 0, i64 0
  %47 = load ptr, ptr %46, align 16
  %48 = call ptr @LLVMTypeOf(ptr noundef %47)
  store ptr %48, ptr %45, align 8
  %49 = getelementptr inbounds ptr, ptr %45, i64 1
  %50 = getelementptr inbounds [2 x ptr], ptr %14, i64 0, i64 1
  %51 = load ptr, ptr %50, align 8
  %52 = call ptr @LLVMTypeOf(ptr noundef %51)
  store ptr %52, ptr %49, align 8
  %53 = load ptr, ptr %10, align 8
  %54 = load i32, ptr getelementptr inbounds (%struct.LLVMIntrinsics, ptr @intrinsic_id, i32 0, i32 49), align 4
  %55 = getelementptr inbounds [2 x ptr], ptr %15, i64 0, i64 0
  %56 = getelementptr inbounds [2 x ptr], ptr %14, i64 0, i64 0
  %57 = call ptr @llvm_emit_call_intrinsic(ptr noundef %53, i32 noundef %54, ptr noundef %55, i32 noundef 2, ptr noundef %56, i32 noundef 2)
  store ptr %57, ptr %16, align 8
  %58 = load ptr, ptr %11, align 8
  %59 = load ptr, ptr %16, align 8
  %60 = load ptr, ptr %12, align 8
  %61 = getelementptr inbounds %struct.Expr_, ptr %60, i32 0, i32 0
  %62 = load ptr, ptr %61, align 8
  call void @llvm_value_set(ptr noundef %58, ptr noundef %59, ptr noundef %62)
  ret void
}