; Function Attrs: nounwind uwtable
define dso_local void @llvm_emit_pow_int_builtin(ptr noundef %0, ptr noundef %1, ptr nocapture noundef readonly %2) local_unnamed_addr #0 {
.critedge:
  %3 = alloca %struct.BEValue, align 8
  %4 = alloca [2 x ptr], align 16
  %5 = alloca [2 x ptr], align 16
  %6 = getelementptr inbounds i8, ptr %2, i64 40
  %7 = load ptr, ptr %6, align 8
  %8 = getelementptr inbounds i8, ptr %3, i64 16
  %9 = load ptr, ptr %7, align 8
  call void @llvm_emit_expr(ptr noundef %0, ptr noundef nonnull %3, ptr noundef %9) #8
  call void @llvm_value_rvalue(ptr noundef %0, ptr noundef nonnull %3) #8
  %10 = load ptr, ptr %8, align 8
  store ptr %10, ptr %4, align 16
  %11 = getelementptr inbounds i8, ptr %7, i64 8
  %12 = load ptr, ptr %11, align 8
  call void @llvm_emit_expr(ptr noundef %0, ptr noundef nonnull %3, ptr noundef %12) #8
  call void @llvm_value_rvalue(ptr noundef %0, ptr noundef nonnull %3) #8
  %13 = load ptr, ptr %8, align 8
  %14 = getelementptr inbounds i8, ptr %4, i64 8
  store ptr %13, ptr %14, align 8
  %15 = load ptr, ptr %4, align 16
  %16 = call ptr @LLVMTypeOf(ptr noundef %15) #8
  store ptr %16, ptr %5, align 16
  %17 = getelementptr inbounds i8, ptr %5, i64 8
  %18 = getelementptr inbounds i8, ptr %4, i64 8
  %19 = load ptr, ptr %18, align 8
  %20 = call ptr @LLVMTypeOf(ptr noundef %19) #8
  store ptr %20, ptr %17, align 8
  %21 = load i32, ptr getelementptr inbounds (%struct.LLVMIntrinsics, ptr @intrinsic_id, i64 0, i32 49), align 4
  %22 = call ptr @llvm_emit_call_intrinsic(ptr noundef %0, i32 noundef %21, ptr noundef nonnull %5, i32 noundef 2, ptr noundef nonnull %4, i32 noundef 2) #8
  %23 = load ptr, ptr %2, align 8
  call void @llvm_value_set(ptr noundef %1, ptr noundef %22, ptr noundef %23) #8
  ret void
}